
newBin:     file format elf64-x86-64


Disassembly of section .onu.hash:

0000000000400298 <.onu.hash>:
  400298:	01 00                	add    %eax,(%rax)
  40029a:	00 00                	add    %al,(%rax)
  40029c:	01 00                	add    %eax,(%rax)
  40029e:	00 00                	add    %al,(%rax)
  4002a0:	01 00                	add    %eax,(%rax)
	...

Disassembly of section .oynsym:

00000000004002b8 <.oynsym>:
	...
  4002d0:	0b 00                	or     (%rax),%eax
  4002d2:	00 00                	add    %al,(%rax)
  4002d4:	12 00                	adc    (%rax),%al
	...
  4002e6:	00 00                	add    %al,(%rax)
  4002e8:	12 00                	adc    (%rax),%al
  4002ea:	00 00                	add    %al,(%rax)
  4002ec:	12 00                	adc    (%rax),%al
	...
  4002fe:	00 00                	add    %al,(%rax)
  400300:	24 00                	and    $0x0,%al
  400302:	00 00                	add    %al,(%rax)
  400304:	20 00                	and    %al,(%rax)
	...

Disassembly of section .oynstr:

0000000000400318 <.oynstr>:
  400318:	00 6c 69 62          	add    %ch,0x62(%rcx,%rbp,2)
  40031c:	63 2e                	movslq (%rsi),%ebp
  40031e:	73 6f                	jae    40038f <_init-0x39>
  400320:	2e 36 00 70 72       	cs add %dh,%ss:0x72(%rax)
  400325:	69 6e 74 66 00 5f 5f 	imul   $0x5f5f0066,0x74(%rsi),%ebp
  40032c:	6c                   	insb   (%dx),%es:(%rdi)
  40032d:	69 62 63 5f 73 74 61 	imul   $0x6174735f,0x63(%rdx),%esp
  400334:	72 74                	jb     4003aa <_init-0x1e>
  400336:	5f                   	pop    %rdi
  400337:	6d                   	insl   (%dx),%es:(%rdi)
  400338:	61                   	(bad)  
  400339:	69 6e 00 5f 5f 67 6d 	imul   $0x6d675f5f,0x0(%rsi),%ebp
  400340:	6f                   	outsl  %ds:(%rsi),(%dx)
  400341:	6e                   	outsb  %ds:(%rsi),(%dx)
  400342:	5f                   	pop    %rdi
  400343:	73 74                	jae    4003b9 <_init-0xf>
  400345:	61                   	(bad)  
  400346:	72 74                	jb     4003bc <_init-0xc>
  400348:	5f                   	pop    %rdi
  400349:	5f                   	pop    %rdi
  40034a:	00 47 4c             	add    %al,0x4c(%rdi)
  40034d:	49                   	rex.WB
  40034e:	42                   	rex.X
  40034f:	43 5f                	rex.XB pop %r15
  400351:	32 2e                	xor    (%rsi),%ch
  400353:	32 2e                	xor    (%rsi),%ch
  400355:	35                   	.byte 0x35
	...

Disassembly of section .onu.version:

0000000000400358 <.onu.version>:
  400358:	00 00                	add    %al,(%rax)
  40035a:	02 00                	add    (%rax),%al
  40035c:	02 00                	add    (%rax),%al
	...

Disassembly of section .onu.version_r:

0000000000400360 <.onu.version_r>:
  400360:	01 00                	add    %eax,(%rax)
  400362:	01 00                	add    %eax,(%rax)
  400364:	01 00                	add    %eax,(%rax)
  400366:	00 00                	add    %al,(%rax)
  400368:	10 00                	adc    %al,(%rax)
  40036a:	00 00                	add    %al,(%rax)
  40036c:	00 00                	add    %al,(%rax)
  40036e:	00 00                	add    %al,(%rax)
  400370:	75 1a                	jne    40038c <_init-0x3c>
  400372:	69 09 00 00 02 00    	imul   $0x20000,(%rcx),%ecx
  400378:	33 00                	xor    (%rax),%eax
  40037a:	00 00                	add    %al,(%rax)
  40037c:	00 00                	add    %al,(%rax)
	...

Disassembly of section .oela.dyn:

0000000000400380 <.oela.dyn>:
  400380:	f8                   	clc    
  400381:	0f 60 00             	punpcklbw (%rax),%mm0
  400384:	00 00                	add    %al,(%rax)
  400386:	00 00                	add    %al,(%rax)
  400388:	06                   	(bad)  
  400389:	00 00                	add    %al,(%rax)
  40038b:	00 03                	add    %al,(%rbx)
	...

Disassembly of section .oela.plt:

0000000000400398 <.oela.plt>:
  400398:	18 10                	sbb    %dl,(%rax)
  40039a:	60                   	(bad)  
  40039b:	00 00                	add    %al,(%rax)
  40039d:	00 00                	add    %al,(%rax)
  40039f:	00 07                	add    %al,(%rdi)
  4003a1:	00 00                	add    %al,(%rax)
  4003a3:	00 01                	add    %al,(%rcx)
	...
  4003ad:	00 00                	add    %al,(%rax)
  4003af:	00 20                	add    %ah,(%rax)
  4003b1:	10 60 00             	adc    %ah,0x0(%rax)
  4003b4:	00 00                	add    %al,(%rax)
  4003b6:	00 00                	add    %al,(%rax)
  4003b8:	07                   	(bad)  
  4003b9:	00 00                	add    %al,(%rax)
  4003bb:	00 02                	add    %al,(%rdx)
	...

Disassembly of section .init:

00000000004003c8 <_init>:
  4003c8:	e9 25 07 30 00       	jmpq   700af2 <_init_dyninst>
  4003cd:	8b 05 25 0c 20 00    	mov    0x200c25(%rip),%eax        # 600ff8 <_DYNAMIC+0x1d0>
  4003d3:	48 85 c0             	test   %rax,%rax
  4003d6:	74 05                	je     4003dd <_init+0x15>
  4003d8:	e9 1d 08 30 00       	jmpq   700bfa <_init_dyninst+0x108>
  4003dd:	e9 1d 08 30 00       	jmpq   700bff <_init_dyninst+0x10d>

Disassembly of section .plt:

00000000004003f0 <printf@plt-0x10>:
  4003f0:	ff 35 12 0c 20 00    	pushq  0x200c12(%rip)        # 601008 <_GLOBAL_OFFSET_TABLE_+0x8>
  4003f6:	ff 25 14 0c 20 00    	jmpq   *0x200c14(%rip)        # 601010 <_GLOBAL_OFFSET_TABLE_+0x10>
  4003fc:	0f 1f 40 00          	nopl   0x0(%rax)

0000000000400400 <printf@plt>:
  400400:	ff 25 12 0c 20 00    	jmpq   *0x200c12(%rip)        # 601018 <_GLOBAL_OFFSET_TABLE_+0x18>
  400406:	68 00 00 00 00       	pushq  $0x0
  40040b:	e9 e0 ff ff ff       	jmpq   4003f0 <_init+0x28>

0000000000400410 <__libc_start_main@plt>:
  400410:	ff 25 0a 0c 20 00    	jmpq   *0x200c0a(%rip)        # 601020 <_GLOBAL_OFFSET_TABLE_+0x20>
  400416:	68 01 00 00 00       	pushq  $0x1
  40041b:	e9 d0 ff ff ff       	jmpq   4003f0 <_init+0x28>

Disassembly of section .plt.got:

0000000000400420 <.plt.got>:
  400420:	e9 d3 05 30 00       	jmpq   7009f8 <targ400420_dyninst>
  400425:	00 66 90             	add    %ah,-0x70(%rsi)

Disassembly of section .text:

0000000000400430 <_start>:
  400430:	e9 a5 04 30 00       	jmpq   7008da <_start_dyninst>
  400435:	5e                   	pop    %rsi
  400436:	48 89 e2             	mov    %rsp,%rdx
  400439:	48 83 e4 f0          	and    $0xfffffffffffffff0,%rsp
  40043d:	50                   	push   %rax
  40043e:	54                   	push   %rsp
  40043f:	49 c7 c0 00 06 40 00 	mov    $0x400600,%r8
  400446:	48 c7 c1 90 05 40 00 	mov    $0x400590,%rcx
  40044d:	48 c7 c7 3a 05 40 00 	mov    $0x40053a,%rdi
  400454:	e8 b7 ff ff ff       	callq  400410 <__libc_start_main@plt>
  400459:	e9 99 05 30 00       	jmpq   7009f7 <_start_dyninst+0x11d>
	...

0000000000400460 <deregister_tm_clones>:
  400460:	b8 3f 10 60 00       	mov    $0x60103f,%eax
  400465:	55                   	push   %rbp
  400466:	48 2d 38 10 60 00    	sub    $0x601038,%rax
  40046c:	48 83 f8 0e          	cmp    $0xe,%rax
  400470:	48 89 e5             	mov    %rsp,%rbp
  400473:	76 1b                	jbe    400490 <deregister_tm_clones+0x30>
  400475:	b8 00 00 00 00       	mov    $0x0,%eax
  40047a:	48 85 c0             	test   %rax,%rax
  40047d:	74 11                	je     400490 <deregister_tm_clones+0x30>
  40047f:	5d                   	pop    %rbp
  400480:	bf 38 10 60 00       	mov    $0x601038,%edi
  400485:	ff e0                	jmpq   *%rax
  400487:	66 0f 1f 84 00 00 00 	nopw   0x0(%rax,%rax,1)
  40048e:	00 00 
  400490:	5d                   	pop    %rbp
  400491:	c3                   	retq   
  400492:	0f 1f 40 00          	nopl   0x0(%rax)
  400496:	66 2e 0f 1f 84 00 00 	nopw   %cs:0x0(%rax,%rax,1)
  40049d:	00 00 00 

00000000004004a0 <register_tm_clones>:
  4004a0:	be 38 10 60 00       	mov    $0x601038,%esi
  4004a5:	55                   	push   %rbp
  4004a6:	48 81 ee 38 10 60 00 	sub    $0x601038,%rsi
  4004ad:	48 c1 fe 03          	sar    $0x3,%rsi
  4004b1:	48 89 e5             	mov    %rsp,%rbp
  4004b4:	48 89 f0             	mov    %rsi,%rax
  4004b7:	48 c1 e8 3f          	shr    $0x3f,%rax
  4004bb:	48 01 c6             	add    %rax,%rsi
  4004be:	48 d1 fe             	sar    %rsi
  4004c1:	74 15                	je     4004d8 <register_tm_clones+0x38>
  4004c3:	b8 00 00 00 00       	mov    $0x0,%eax
  4004c8:	48 85 c0             	test   %rax,%rax
  4004cb:	74 0b                	je     4004d8 <register_tm_clones+0x38>
  4004cd:	5d                   	pop    %rbp
  4004ce:	bf 38 10 60 00       	mov    $0x601038,%edi
  4004d3:	ff e0                	jmpq   *%rax
  4004d5:	0f 1f 00             	nopl   (%rax)
  4004d8:	5d                   	pop    %rbp
  4004d9:	c3                   	retq   
  4004da:	66 0f 1f 44 00 00    	nopw   0x0(%rax,%rax,1)

00000000004004e0 <__do_global_dtors_aux>:
  4004e0:	e9 03 01 30 00       	jmpq   7005e8 <__do_global_dtors_aux_dyninst>
  4004e5:	00 00                	add    %al,(%rax)
  4004e7:	75 11                	jne    4004fa <__do_global_dtors_aux+0x1a>
  4004e9:	e9 fb 01 30 00       	jmpq   7006e9 <__do_global_dtors_aux_dyninst+0x101>
  4004ee:	6e                   	outsb  %ds:(%rsi),(%dx)
  4004ef:	ff                   	(bad)  
  4004f0:	ff                   	(bad)  
  4004f1:	ff                   	(bad)  
  4004f2:	e9 fb 01 30 00       	jmpq   7006f2 <__do_global_dtors_aux_dyninst+0x10a>
  4004f7:	20 00                	and    %al,(%rax)
  4004f9:	01 e9                	add    %ebp,%ecx
  4004fb:	fb                   	sti    
  4004fc:	01 30                	add    %esi,(%rax)
	...

0000000000400500 <frame_dummy>:
  400500:	e9 f7 01 30 00       	jmpq   7006fc <frame_dummy_dyninst>
  400505:	48 83 3f 00          	cmpq   $0x0,(%rdi)
  400509:	75 05                	jne    400510 <frame_dummy+0x10>
  40050b:	e9 ef 02 30 00       	jmpq   7007ff <frame_dummy_dyninst+0x103>
  400510:	e9 ef 02 30 00       	jmpq   700804 <frame_dummy_dyninst+0x108>
  400515:	48 85 c0             	test   %rax,%rax
  400518:	74 f1                	je     40050b <frame_dummy+0xb>
  40051a:	e9 ef 02 30 00       	jmpq   70080e <frame_dummy_dyninst+0x112>
  40051f:	d0 e9                	shr    %cl
  400521:	ef                   	out    %eax,(%dx)
  400522:	02 30                	add    (%rax),%dh
  400524:	00 ff                	add    %bh,%bh

0000000000400526 <_Z5funcCii>:
  400526:	e9 ef 02 30 00       	jmpq   70081a <funcC_dyninst>
  40052b:	7d fc                	jge    400529 <_Z5funcCii+0x3>
  40052d:	89 75 f8             	mov    %esi,-0x8(%rbp)
  400530:	8b 55 fc             	mov    -0x4(%rbp),%edx
  400533:	8b 45 f8             	mov    -0x8(%rbp),%eax
  400536:	01 d0                	add    %edx,%eax
  400538:	5d                   	pop    %rbp
  400539:	c3                   	retq   

000000000040053a <main>:
  40053a:	e9 28 08 30 00       	jmpq   700d67 <main_dyninst>
  40053f:	83 ec 20             	sub    $0x20,%esp
  400542:	89 7d ec             	mov    %edi,-0x14(%rbp)
  400545:	48 89 75 e0          	mov    %rsi,-0x20(%rbp)
  400549:	c7 45 f4 0a 00 00 00 	movl   $0xa,-0xc(%rbp)
  400550:	c7 45 f8 64 00 00 00 	movl   $0x64,-0x8(%rbp)
  400557:	8b 55 f8             	mov    -0x8(%rbp),%edx
  40055a:	8b 45 f4             	mov    -0xc(%rbp),%eax
  40055d:	89 d6                	mov    %edx,%esi
  40055f:	89 c7                	mov    %eax,%edi
  400561:	e8 c0 ff ff ff       	callq  400526 <_Z5funcCii>
  400566:	e9 1c 09 30 00       	jmpq   700e87 <main_dyninst+0x120>
  40056b:	fc                   	cld    
  40056c:	8b 55 f8             	mov    -0x8(%rbp),%edx
  40056f:	8b 45 f4             	mov    -0xc(%rbp),%eax
  400572:	89 c6                	mov    %eax,%esi
  400574:	bf 14 06 40 00       	mov    $0x400614,%edi
  400579:	b8 00 00 00 00       	mov    $0x0,%eax
  40057e:	e8 7d fe ff ff       	callq  400400 <printf@plt>
  400583:	e9 1c 09 30 00       	jmpq   700ea4 <main_dyninst+0x13d>
  400588:	c9                   	leaveq 
  400589:	c3                   	retq   
  40058a:	66 0f 1f 44 00 00    	nopw   0x0(%rax,%rax,1)

0000000000400590 <__libc_csu_init>:
  400590:	e9 16 09 30 00       	jmpq   700eab <main_dyninst+0x144>
  400595:	89 ff                	mov    %edi,%edi
  400597:	41 55                	push   %r13
  400599:	41 54                	push   %r12
  40059b:	4c 8d 25 6e 08 20 00 	lea    0x20086e(%rip),%r12        # 600e10 <__frame_dummy_init_array_entry>
  4005a2:	55                   	push   %rbp
  4005a3:	48 8d 2d 6e 08 20 00 	lea    0x20086e(%rip),%rbp        # 600e18 <__init_array_end>
  4005aa:	53                   	push   %rbx
  4005ab:	49 89 f6             	mov    %rsi,%r14
  4005ae:	49 89 d5             	mov    %rdx,%r13
  4005b1:	4c 29 e5             	sub    %r12,%rbp
  4005b4:	48 83 ec 08          	sub    $0x8,%rsp
  4005b8:	48 c1 fd 03          	sar    $0x3,%rbp
  4005bc:	e8 07 fe ff ff       	callq  4003c8 <_init>
  4005c1:	e9 0a 0a 30 00       	jmpq   700fd0 <main_dyninst+0x269>
  4005c6:	e9 0e 0a 30 00       	jmpq   700fd9 <main_dyninst+0x272>
  4005cb:	00 00                	add    %al,(%rax)
  4005cd:	00 00                	add    %al,(%rax)
  4005cf:	00 e9                	add    %ch,%cl
  4005d1:	0e                   	(bad)  
  4005d2:	0a 30                	or     (%rax),%dh
  4005d4:	00 f6                	add    %dh,%dh
  4005d6:	44 89 ff             	mov    %r15d,%edi
  4005d9:	41 ff 14 dc          	callq  *(%r12,%rbx,8)
  4005dd:	e9 0e 0a 30 00       	jmpq   700ff0 <main_dyninst+0x289>
  4005e2:	39 eb                	cmp    %ebp,%ebx
  4005e4:	75 ea                	jne    4005d0 <__libc_csu_init+0x40>
  4005e6:	e9 0e 0a 30 00       	jmpq   700ff9 <main_dyninst+0x292>
  4005eb:	5d                   	pop    %rbp
  4005ec:	41 5c                	pop    %r12
  4005ee:	41 5d                	pop    %r13
  4005f0:	41 5e                	pop    %r14
  4005f2:	41 5f                	pop    %r15
  4005f4:	c3                   	retq   
  4005f5:	90                   	nop
  4005f6:	66 2e 0f 1f 84 00 00 	nopw   %cs:0x0(%rax,%rax,1)
  4005fd:	00 00 00 

0000000000400600 <__libc_csu_fini>:
  400600:	f3 c3                	repz retq 

Disassembly of section .fini:

0000000000400604 <_fini>:
  400604:	e9 a9 06 30 00       	jmpq   700cb2 <_fini_dyninst>
  400609:	83 c4 08             	add    $0x8,%esp
  40060c:	c3                   	retq   

Disassembly of section .oynamic:

0000000000600e28 <_DYNAMIC>:
  600e28:	01 00                	add    %eax,(%rax)
  600e2a:	00 00                	add    %al,(%rax)
  600e2c:	00 00                	add    %al,(%rax)
  600e2e:	00 00                	add    %al,(%rax)
  600e30:	01 00                	add    %eax,(%rax)
  600e32:	00 00                	add    %al,(%rax)
  600e34:	00 00                	add    %al,(%rax)
  600e36:	00 00                	add    %al,(%rax)
  600e38:	0c 00                	or     $0x0,%al
  600e3a:	00 00                	add    %al,(%rax)
  600e3c:	00 00                	add    %al,(%rax)
  600e3e:	00 00                	add    %al,(%rax)
  600e40:	c8 03 40 00          	enterq $0x4003,$0x0
  600e44:	00 00                	add    %al,(%rax)
  600e46:	00 00                	add    %al,(%rax)
  600e48:	0d 00 00 00 00       	or     $0x0,%eax
  600e4d:	00 00                	add    %al,(%rax)
  600e4f:	00 04 06             	add    %al,(%rsi,%rax,1)
  600e52:	40 00 00             	add    %al,(%rax)
  600e55:	00 00                	add    %al,(%rax)
  600e57:	00 19                	add    %bl,(%rcx)
  600e59:	00 00                	add    %al,(%rax)
  600e5b:	00 00                	add    %al,(%rax)
  600e5d:	00 00                	add    %al,(%rax)
  600e5f:	00 10                	add    %dl,(%rax)
  600e61:	0e                   	(bad)  
  600e62:	60                   	(bad)  
  600e63:	00 00                	add    %al,(%rax)
  600e65:	00 00                	add    %al,(%rax)
  600e67:	00 1b                	add    %bl,(%rbx)
  600e69:	00 00                	add    %al,(%rax)
  600e6b:	00 00                	add    %al,(%rax)
  600e6d:	00 00                	add    %al,(%rax)
  600e6f:	00 08                	add    %cl,(%rax)
  600e71:	00 00                	add    %al,(%rax)
  600e73:	00 00                	add    %al,(%rax)
  600e75:	00 00                	add    %al,(%rax)
  600e77:	00 1a                	add    %bl,(%rdx)
  600e79:	00 00                	add    %al,(%rax)
  600e7b:	00 00                	add    %al,(%rax)
  600e7d:	00 00                	add    %al,(%rax)
  600e7f:	00 18                	add    %bl,(%rax)
  600e81:	0e                   	(bad)  
  600e82:	60                   	(bad)  
  600e83:	00 00                	add    %al,(%rax)
  600e85:	00 00                	add    %al,(%rax)
  600e87:	00 1c 00             	add    %bl,(%rax,%rax,1)
  600e8a:	00 00                	add    %al,(%rax)
  600e8c:	00 00                	add    %al,(%rax)
  600e8e:	00 00                	add    %al,(%rax)
  600e90:	08 00                	or     %al,(%rax)
  600e92:	00 00                	add    %al,(%rax)
  600e94:	00 00                	add    %al,(%rax)
  600e96:	00 00                	add    %al,(%rax)
  600e98:	f5                   	cmc    
  600e99:	fe                   	(bad)  
  600e9a:	ff 6f 00             	ljmp   *0x0(%rdi)
  600e9d:	00 00                	add    %al,(%rax)
  600e9f:	00 98 02 40 00 00    	add    %bl,0x4002(%rax)
  600ea5:	00 00                	add    %al,(%rax)
  600ea7:	00 05 00 00 00 00    	add    %al,0x0(%rip)        # 600ead <_DYNAMIC+0x85>
  600ead:	00 00                	add    %al,(%rax)
  600eaf:	00 18                	add    %bl,(%rax)
  600eb1:	03 40 00             	add    0x0(%rax),%eax
  600eb4:	00 00                	add    %al,(%rax)
  600eb6:	00 00                	add    %al,(%rax)
  600eb8:	06                   	(bad)  
  600eb9:	00 00                	add    %al,(%rax)
  600ebb:	00 00                	add    %al,(%rax)
  600ebd:	00 00                	add    %al,(%rax)
  600ebf:	00 b8 02 40 00 00    	add    %bh,0x4002(%rax)
  600ec5:	00 00                	add    %al,(%rax)
  600ec7:	00 0a                	add    %cl,(%rdx)
  600ec9:	00 00                	add    %al,(%rax)
  600ecb:	00 00                	add    %al,(%rax)
  600ecd:	00 00                	add    %al,(%rax)
  600ecf:	00 3f                	add    %bh,(%rdi)
  600ed1:	00 00                	add    %al,(%rax)
  600ed3:	00 00                	add    %al,(%rax)
  600ed5:	00 00                	add    %al,(%rax)
  600ed7:	00 0b                	add    %cl,(%rbx)
  600ed9:	00 00                	add    %al,(%rax)
  600edb:	00 00                	add    %al,(%rax)
  600edd:	00 00                	add    %al,(%rax)
  600edf:	00 18                	add    %bl,(%rax)
  600ee1:	00 00                	add    %al,(%rax)
  600ee3:	00 00                	add    %al,(%rax)
  600ee5:	00 00                	add    %al,(%rax)
  600ee7:	00 15 00 00 00 00    	add    %dl,0x0(%rip)        # 600eed <_DYNAMIC+0xc5>
	...
  600ef5:	00 00                	add    %al,(%rax)
  600ef7:	00 03                	add    %al,(%rbx)
	...
  600f01:	10 60 00             	adc    %ah,0x0(%rax)
  600f04:	00 00                	add    %al,(%rax)
  600f06:	00 00                	add    %al,(%rax)
  600f08:	02 00                	add    (%rax),%al
  600f0a:	00 00                	add    %al,(%rax)
  600f0c:	00 00                	add    %al,(%rax)
  600f0e:	00 00                	add    %al,(%rax)
  600f10:	30 00                	xor    %al,(%rax)
  600f12:	00 00                	add    %al,(%rax)
  600f14:	00 00                	add    %al,(%rax)
  600f16:	00 00                	add    %al,(%rax)
  600f18:	14 00                	adc    $0x0,%al
  600f1a:	00 00                	add    %al,(%rax)
  600f1c:	00 00                	add    %al,(%rax)
  600f1e:	00 00                	add    %al,(%rax)
  600f20:	07                   	(bad)  
  600f21:	00 00                	add    %al,(%rax)
  600f23:	00 00                	add    %al,(%rax)
  600f25:	00 00                	add    %al,(%rax)
  600f27:	00 17                	add    %dl,(%rdi)
  600f29:	00 00                	add    %al,(%rax)
  600f2b:	00 00                	add    %al,(%rax)
  600f2d:	00 00                	add    %al,(%rax)
  600f2f:	00 98 03 40 00 00    	add    %bl,0x4003(%rax)
  600f35:	00 00                	add    %al,(%rax)
  600f37:	00 07                	add    %al,(%rdi)
  600f39:	00 00                	add    %al,(%rax)
  600f3b:	00 00                	add    %al,(%rax)
  600f3d:	00 00                	add    %al,(%rax)
  600f3f:	00 80 03 40 00 00    	add    %al,0x4003(%rax)
  600f45:	00 00                	add    %al,(%rax)
  600f47:	00 08                	add    %cl,(%rax)
  600f49:	00 00                	add    %al,(%rax)
  600f4b:	00 00                	add    %al,(%rax)
  600f4d:	00 00                	add    %al,(%rax)
  600f4f:	00 18                	add    %bl,(%rax)
  600f51:	00 00                	add    %al,(%rax)
  600f53:	00 00                	add    %al,(%rax)
  600f55:	00 00                	add    %al,(%rax)
  600f57:	00 09                	add    %cl,(%rcx)
  600f59:	00 00                	add    %al,(%rax)
  600f5b:	00 00                	add    %al,(%rax)
  600f5d:	00 00                	add    %al,(%rax)
  600f5f:	00 18                	add    %bl,(%rax)
  600f61:	00 00                	add    %al,(%rax)
  600f63:	00 00                	add    %al,(%rax)
  600f65:	00 00                	add    %al,(%rax)
  600f67:	00 fe                	add    %bh,%dh
  600f69:	ff                   	(bad)  
  600f6a:	ff 6f 00             	ljmp   *0x0(%rdi)
  600f6d:	00 00                	add    %al,(%rax)
  600f6f:	00 60 03             	add    %ah,0x3(%rax)
  600f72:	40 00 00             	add    %al,(%rax)
  600f75:	00 00                	add    %al,(%rax)
  600f77:	00 ff                	add    %bh,%bh
  600f79:	ff                   	(bad)  
  600f7a:	ff 6f 00             	ljmp   *0x0(%rdi)
  600f7d:	00 00                	add    %al,(%rax)
  600f7f:	00 01                	add    %al,(%rcx)
  600f81:	00 00                	add    %al,(%rax)
  600f83:	00 00                	add    %al,(%rax)
  600f85:	00 00                	add    %al,(%rax)
  600f87:	00 f0                	add    %dh,%al
  600f89:	ff                   	(bad)  
  600f8a:	ff 6f 00             	ljmp   *0x0(%rdi)
  600f8d:	00 00                	add    %al,(%rax)
  600f8f:	00 58 03             	add    %bl,0x3(%rax)
  600f92:	40 00 00             	add    %al,(%rax)
	...
